target datalayout = "e-m:e-p270:32:32-p271:32:32-p272:64:64-i64:64-i128:128-f80:128-n8:16:32:64-S128"
target triple = "x86_64-unknown-linux-gnu"

%class.doc_manager = type { %class.tbv_manager, ptr, %class.small_object_allocator }
%class.tbv_manager = type { %class.fixed_bit_vector_manager, %class.ptr_vector }
%class.fixed_bit_vector_manager = type <{ %class.small_object_allocator, i32, i32, i32, i32, %class.fixed_bit_vector, [4 x i8] }>
%class.fixed_bit_vector = type { [1 x i32] }
%class.ptr_vector = type { %class.vector }
%class.vector = type { ptr }
%class.small_object_allocator = type { [32 x ptr], [32 x ptr], i64 }

; Function Attrs: mustprogress nounwind uwtable
define linkonce_odr hidden noundef i32 @_ZN16fixed_bit_vector12get_pos_maskEj(i32 noundef %bit_idx) #5 comdat align 2 {
entry:
  %bit_idx.addr = alloca i32, align 4
  store i32 %bit_idx, ptr %bit_idx.addr, align 4
  %0 = load i32, ptr %bit_idx.addr, align 4
  %rem = urem i32 %0, 32
  %shl = shl i32 1, %rem
  ret i32 %shl
}

; Function Attrs: mustprogress nounwind uwtable
define linkonce_odr hidden noundef i32 @_ZNK16fixed_bit_vector12get_bit_wordEj(ptr noundef nonnull align 4 dereferenceable(4) %this, i32 noundef %bit_idx) #5 comdat align 2 {
entry:
  %this.addr = alloca ptr, align 8
  %bit_idx.addr = alloca i32, align 4
  store ptr %this, ptr %this.addr, align 8
  store i32 %bit_idx, ptr %bit_idx.addr, align 4
  %this1 = load ptr, ptr %this.addr, align 8
  %m_data = getelementptr inbounds %class.fixed_bit_vector, ptr %this1, i32 0, i32 0
  %0 = load i32, ptr %bit_idx.addr, align 4
  %div = udiv i32 %0, 32
  %idxprom = zext i32 %div to i64
  %arrayidx = getelementptr inbounds [1 x i32], ptr %m_data, i64 0, i64 %idxprom
  %1 = load i32, ptr %arrayidx, align 4
  ret i32 %1
}

; Function Attrs: mustprogress uwtable
define linkonce_odr hidden noundef zeroext i1 @_ZNK16fixed_bit_vector3getEj(ptr noundef nonnull align 4 dereferenceable(4) %this, i32 noundef %bit_idx) #4 comdat align 2 {
entry:
  %this.addr = alloca ptr, align 8
  %bit_idx.addr = alloca i32, align 4
  store ptr %this, ptr %this.addr, align 8
  store i32 %bit_idx, ptr %bit_idx.addr, align 4
  %this1 = load ptr, ptr %this.addr, align 8
  %0 = load i32, ptr %bit_idx.addr, align 4
  %call = call noundef i32 @_ZNK16fixed_bit_vector12get_bit_wordEj(ptr noundef nonnull align 4 dereferenceable(4) %this1, i32 noundef %0)
  %1 = load i32, ptr %bit_idx.addr, align 4
  %call2 = call noundef i32 @_ZN16fixed_bit_vector12get_pos_maskEj(i32 noundef %1)
  %and = and i32 %call, %call2
  %cmp = icmp ne i32 %and, 0
  ret i1 %cmp
}

; Function Attrs: mustprogress nounwind uwtable
define linkonce_odr hidden noundef i32 @_ZNK24fixed_bit_vector_manager8num_bitsEv(ptr noundef nonnull align 8 dereferenceable(540) %this) #5 comdat align 2 {
entry:
  %this.addr = alloca ptr, align 8
  store ptr %this, ptr %this.addr, align 8
  %this1 = load ptr, ptr %this.addr, align 8
  %m_num_bits = getelementptr inbounds %class.fixed_bit_vector_manager, ptr %this1, i32 0, i32 1
  %0 = load i32, ptr %m_num_bits, align 8
  ret i32 %0
}

; Function Attrs: mustprogress uwtable
define linkonce_odr hidden noundef i32 @_ZNK3tbv3getEj(ptr noundef nonnull align 4 dereferenceable(4) %this, i32 noundef %index) #4 comdat align 2 {
entry:
  %this.addr = alloca ptr, align 8
  %index.addr = alloca i32, align 4
  store ptr %this, ptr %this.addr, align 8
  store i32 %index, ptr %index.addr, align 4
  %this1 = load ptr, ptr %this.addr, align 8
  %0 = load i32, ptr %index.addr, align 4
  %mul = mul i32 %0, 2
  store i32 %mul, ptr %index.addr, align 4
  %1 = load i32, ptr %index.addr, align 4
  %call = call noundef zeroext i1 @_ZNK16fixed_bit_vector3getEj(ptr noundef nonnull align 4 dereferenceable(4) %this1, i32 noundef %1)
  %conv = zext i1 %call to i32
  %shl = shl i32 %conv, 1
  %2 = load i32, ptr %index.addr, align 4
  %add = add i32 %2, 1
  %call2 = call noundef zeroext i1 @_ZNK16fixed_bit_vector3getEj(ptr noundef nonnull align 4 dereferenceable(4) %this1, i32 noundef %add)
  %conv3 = zext i1 %call2 to i32
  %or = or i32 %shl, %conv3
  ret i32 %or
}

; Function Attrs: mustprogress uwtable
define linkonce_odr hidden noundef i32 @_ZNK11tbv_manager9num_tbitsEv(ptr noundef nonnull align 8 dereferenceable(552) %this) #4 comdat align 2 {
entry:
  %this.addr = alloca ptr, align 8
  store ptr %this, ptr %this.addr, align 8
  %this1 = load ptr, ptr %this.addr, align 8
  %m = getelementptr inbounds %class.tbv_manager, ptr %this1, i32 0, i32 0
  %call = call noundef i32 @_ZNK24fixed_bit_vector_manager8num_bitsEv(ptr noundef nonnull align 8 dereferenceable(540) %m)
  %div = udiv i32 %call, 2
  ret i32 %div
}

; Function Attrs: mustprogress uwtable
define linkonce_odr hidden noundef i32 @_ZNK3tbvixEj(ptr noundef nonnull align 4 dereferenceable(4) %this, i32 noundef %idx) #4 comdat align 2 {
entry:
  %this.addr = alloca ptr, align 8
  %idx.addr = alloca i32, align 4
  store ptr %this, ptr %this.addr, align 8
  store i32 %idx, ptr %idx.addr, align 4
  %this1 = load ptr, ptr %this.addr, align 8
  %0 = load i32, ptr %idx.addr, align 4
  %call = call noundef i32 @_ZNK3tbv3getEj(ptr noundef nonnull align 4 dereferenceable(4) %this1, i32 noundef %0)
  ret i32 %call
}

; Function Attrs: mustprogress uwtable
define linkonce_odr hidden noundef i32 @_ZNK11doc_manager9num_tbitsEv(ptr noundef nonnull align 8 dereferenceable(1080) %this) #4 comdat align 2 {
entry:
  %this.addr = alloca ptr, align 8
  store ptr %this, ptr %this.addr, align 8
  %this1 = load ptr, ptr %this.addr, align 8
  %m = getelementptr inbounds %class.doc_manager, ptr %this1, i32 0, i32 0
  %call = call noundef i32 @_ZNK11tbv_manager9num_tbitsEv(ptr noundef nonnull align 8 dereferenceable(552) %m)
  ret i32 %call
}

; Function Attrs: mustprogress uwtable
define hidden noundef i32 @_ZN11doc_manager11diff_by_012ERK3tbvS2_Rj(ptr noundef nonnull align 8 dereferenceable(1080) %this, ptr noundef nonnull align 4 dereferenceable(4) %pos, ptr noundef nonnull align 4 dereferenceable(4) %neg, ptr noundef nonnull align 4 dereferenceable(4) %index) #4 align 2 {
entry:
  %retval = alloca i32, align 4
  %this.addr = alloca ptr, align 8
  %pos.addr = alloca ptr, align 8
  %neg.addr = alloca ptr, align 8
  %index.addr = alloca ptr, align 8
  %n = alloca i32, align 4
  %count = alloca i32, align 4
  %i = alloca i32, align 4
  %b1 = alloca i32, align 4
  %b2 = alloca i32, align 4
  store ptr %this, ptr %this.addr, align 8
  store ptr %pos, ptr %pos.addr, align 8
  store ptr %neg, ptr %neg.addr, align 8
  store ptr %index, ptr %index.addr, align 8
  %this1 = load ptr, ptr %this.addr, align 8
  %call = call noundef i32 @_ZNK11doc_manager9num_tbitsEv(ptr noundef nonnull align 8 dereferenceable(1080) %this1)
  store i32 %call, ptr %n, align 4
  store i32 0, ptr %count, align 4
  store i32 0, ptr %i, align 4
  br label %for.cond

for.cond:                                         ; preds = %for.inc, %entry
  %0 = load i32, ptr %i, align 4
  %1 = load i32, ptr %n, align 4
  %cmp = icmp ult i32 %0, %1
  br i1 %cmp, label %for.body, label %for.end

for.body:                                         ; preds = %for.cond
  %2 = load ptr, ptr %pos.addr, align 8
  %3 = load i32, ptr %i, align 4
  %call2 = call noundef i32 @_ZNK3tbvixEj(ptr noundef nonnull align 4 dereferenceable(4) %2, i32 noundef %3)
  store i32 %call2, ptr %b1, align 4
  %4 = load ptr, ptr %neg.addr, align 8
  %5 = load i32, ptr %i, align 4
  %call3 = call noundef i32 @_ZNK3tbvixEj(ptr noundef nonnull align 4 dereferenceable(4) %4, i32 noundef %5)
  store i32 %call3, ptr %b2, align 4
  %6 = load i32, ptr %b1, align 4
  %7 = load i32, ptr %b2, align 4
  %cmp4 = icmp ne i32 %6, %7
  br i1 %cmp4, label %if.then, label %if.end13

if.then:                                          ; preds = %for.body
  %8 = load i32, ptr %count, align 4
  %cmp5 = icmp eq i32 %8, 1
  br i1 %cmp5, label %if.then6, label %if.end

if.then6:                                         ; preds = %if.then
  store i32 2, ptr %retval, align 4
  br label %return

if.end:                                           ; preds = %if.then
  %9 = load i32, ptr %b1, align 4
  %cmp7 = icmp eq i32 %9, 3
  br i1 %cmp7, label %if.then8, label %if.else

if.then8:                                         ; preds = %if.end
  %10 = load i32, ptr %i, align 4
  %11 = load ptr, ptr %index.addr, align 8
  store i32 %10, ptr %11, align 4
  store i32 1, ptr %count, align 4
  br label %if.end12

if.else:                                          ; preds = %if.end
  %12 = load i32, ptr %b2, align 4
  %cmp9 = icmp ne i32 %12, 3
  br i1 %cmp9, label %if.then10, label %if.end11

if.then10:                                        ; preds = %if.else
  store i32 3, ptr %retval, align 4
  br label %return

if.end11:                                         ; preds = %if.else
  br label %if.end12

if.end12:                                         ; preds = %if.end11, %if.then8
  br label %if.end13

if.end13:                                         ; preds = %if.end12, %for.body
  br label %for.inc

for.inc:                                          ; preds = %if.end13
  %13 = load i32, ptr %i, align 4
  %inc = add i32 %13, 1
  store i32 %inc, ptr %i, align 4
  br label %for.cond, !llvm.loop !15

for.end:                                          ; preds = %for.cond
  %14 = load i32, ptr %count, align 4
  store i32 %14, ptr %retval, align 4
  br label %return

return:                                           ; preds = %for.end, %if.then10, %if.then6
  %15 = load i32, ptr %retval, align 4
  ret i32 %15
}