; Function Attrs: mustprogress nofree norecurse nosync nounwind memory(argmem: readwrite) uwtable
define hidden noundef i32 @_ZN11doc_manager11diff_by_012ERK3tbvS2_Rj(ptr nocapture noundef nonnull readonly align 8 dereferenceable(1080) %this, ptr nocapture noundef nonnull readonly align 4 dereferenceable(4) %pos, ptr nocapture noundef nonnull readonly align 4 dereferenceable(4) %neg, ptr nocapture noundef nonnull writeonly align 4 dereferenceable(4) %index) local_unnamed_addr #7 align 2 {
entry:
  %m_num_bits.i.i.i = getelementptr inbounds i8, ptr %this, i64 520
  %0 = load i32, ptr %m_num_bits.i.i.i, align 8
  %div1.i.i = lshr i32 %0, 1
  %cmp20.not = icmp ult i32 %0, 2
  br i1 %cmp20.not, label %return, label %for.body

for.body:                                         ; preds = %entry, %for.inc
  %count.022 = phi i32 [ %count.1, %for.inc ], [ 0, %entry ]
  %i.021 = phi i32 [ %inc, %for.inc ], [ 0, %entry ]
  %mul.i.i = shl nuw i32 %i.021, 1
  %div1.i.i.i.i = lshr i32 %i.021, 4
  %idxprom.i.i.i.i = zext nneg i32 %div1.i.i.i.i to i64
  %arrayidx.i.i.i.i = getelementptr inbounds [1 x i32], ptr %pos, i64 0, i64 %idxprom.i.i.i.i
  %1 = load i32, ptr %arrayidx.i.i.i.i, align 4
  %rem.i.i.i.i = and i32 %mul.i.i, 30
  %shl.i.i.i.i = shl nuw nsw i32 1, %rem.i.i.i.i
  %and.i.i.i = and i32 %1, %shl.i.i.i.i
  %cmp.i.not.i.i = icmp eq i32 %and.i.i.i, 0
  %shl.i.i = select i1 %cmp.i.not.i.i, i32 0, i32 2
  %rem.i.i6.i.i = or disjoint i32 %rem.i.i.i.i, 1
  %2 = lshr i32 %1, %rem.i.i6.i.i
  %conv3.i.i = and i32 %2, 1
  %or.i.i = or disjoint i32 %shl.i.i, %conv3.i.i
  %arrayidx.i.i.i.i11 = getelementptr inbounds [1 x i32], ptr %neg, i64 0, i64 %idxprom.i.i.i.i
  %3 = load i32, ptr %arrayidx.i.i.i.i11, align 4
  %and.i.i.i14 = and i32 %3, %shl.i.i.i.i
  %cmp.i.not.i.i15 = icmp eq i32 %and.i.i.i14, 0
  %shl.i.i16 = select i1 %cmp.i.not.i.i15, i32 0, i32 2
  %4 = lshr i32 %3, %rem.i.i6.i.i
  %conv3.i.i18 = and i32 %4, 1
  %or.i.i19 = or disjoint i32 %shl.i.i16, %conv3.i.i18
  %cmp4.not = icmp eq i32 %or.i.i, %or.i.i19
  br i1 %cmp4.not, label %for.inc, label %if.then

if.then:                                          ; preds = %for.body
  %cmp5 = icmp eq i32 %count.022, 1
  br i1 %cmp5, label %return, label %if.end

if.end:                                           ; preds = %if.then
  %cmp7 = icmp eq i32 %or.i.i, 3
  br i1 %cmp7, label %if.then8, label %if.else

if.then8:                                         ; preds = %if.end
  store i32 %i.021, ptr %index, align 4
  br label %for.inc

if.else:                                          ; preds = %if.end
  %cmp9.not = icmp eq i32 %or.i.i19, 3
  br i1 %cmp9.not, label %for.inc, label %return

for.inc:                                          ; preds = %for.body, %if.else, %if.then8
  %count.1 = phi i32 [ 1, %if.then8 ], [ 0, %if.else ], [ %count.022, %for.body ]
  %inc = add nuw nsw i32 %i.021, 1
  %exitcond.not = icmp eq i32 %inc, %div1.i.i
  br i1 %exitcond.not, label %return, label %for.body, !llvm.loop !14

return:                                           ; preds = %if.then, %if.else, %for.inc, %entry
  %retval.0 = phi i32 [ 0, %entry ], [ %count.1, %for.inc ], [ 3, %if.else ], [ 2, %if.then ]
  ret i32 %retval.0
}